; ModuleID = '2/527.c'
source_filename = "2/527.c"
target datalayout = "e-m:e-p270:32:32-p271:32:32-p272:64:64-i64:64-f80:128-n8:16:32:64-S128"
target triple = "x86_64-pc-linux-gnu"

@.str = private unnamed_addr constant [3 x i8] c"%d\00", align 1
@.str.1 = private unnamed_addr constant [5 x i8] c"%d%s\00", align 1
@.str.2 = private unnamed_addr constant [7 x i8] c"%c\0A%d\0A\00", align 1
@.str.3 = private unnamed_addr constant [4 x i8] c"%d\0A\00", align 1

; Function Attrs: noinline nounwind uwtable
define dso_local void @main() #0 {
  %1 = alloca i32, align 4
  %2 = alloca i32, align 4
  %3 = alloca i32, align 4
  %4 = alloca i32, align 4
  %5 = alloca i32, align 4
  %6 = alloca [1000 x i32], align 16
  %7 = alloca [26 x i32], align 16
  %8 = alloca [1000 x [26 x i8]], align 16
  %9 = call i32 (i8*, ...) @__isoc99_scanf(i8* getelementptr inbounds ([3 x i8], [3 x i8]* @.str, i64 0, i64 0), i32* %4)
  store i32 0, i32* %1, align 4
  br label %10

10:                                               ; preds = %17, %0
  %11 = load i32, i32* %1, align 4
  %12 = icmp slt i32 %11, 26
  br i1 %12, label %13, label %20

13:                                               ; preds = %10
  %14 = load i32, i32* %1, align 4
  %15 = sext i32 %14 to i64
  %16 = getelementptr inbounds [26 x i32], [26 x i32]* %7, i64 0, i64 %15
  store i32 0, i32* %16, align 4
  br label %17

17:                                               ; preds = %13
  %18 = load i32, i32* %1, align 4
  %19 = add nsw i32 %18, 1
  store i32 %19, i32* %1, align 4
  br label %10

20:                                               ; preds = %10
  store i32 0, i32* %1, align 4
  br label %21

21:                                               ; preds = %61, %20
  %22 = load i32, i32* %1, align 4
  %23 = load i32, i32* %4, align 4
  %24 = icmp slt i32 %22, %23
  br i1 %24, label %25, label %64

25:                                               ; preds = %21
  %26 = load i32, i32* %1, align 4
  %27 = sext i32 %26 to i64
  %28 = getelementptr inbounds [1000 x i32], [1000 x i32]* %6, i64 0, i64 %27
  %29 = load i32, i32* %1, align 4
  %30 = sext i32 %29 to i64
  %31 = getelementptr inbounds [1000 x [26 x i8]], [1000 x [26 x i8]]* %8, i64 0, i64 %30
  %32 = getelementptr inbounds [26 x i8], [26 x i8]* %31, i64 0, i64 0
  %33 = call i32 (i8*, ...) @__isoc99_scanf(i8* getelementptr inbounds ([5 x i8], [5 x i8]* @.str.1, i64 0, i64 0), i32* %28, i8* %32)
  store i32 0, i32* %2, align 4
  br label %34

34:                                               ; preds = %57, %25
  %35 = load i32, i32* %2, align 4
  %36 = sext i32 %35 to i64
  %37 = load i32, i32* %1, align 4
  %38 = sext i32 %37 to i64
  %39 = getelementptr inbounds [1000 x [26 x i8]], [1000 x [26 x i8]]* %8, i64 0, i64 %38
  %40 = getelementptr inbounds [26 x i8], [26 x i8]* %39, i64 0, i64 0
  %41 = call i64 @strlen(i8* %40) #3
  %42 = icmp ult i64 %36, %41
  br i1 %42, label %43, label %60

43:                                               ; preds = %34
  %44 = load i32, i32* %1, align 4
  %45 = sext i32 %44 to i64
  %46 = getelementptr inbounds [1000 x [26 x i8]], [1000 x [26 x i8]]* %8, i64 0, i64 %45
  %47 = load i32, i32* %2, align 4
  %48 = sext i32 %47 to i64
  %49 = getelementptr inbounds [26 x i8], [26 x i8]* %46, i64 0, i64 %48
  %50 = load i8, i8* %49, align 1
  %51 = sext i8 %50 to i32
  %52 = sub nsw i32 %51, 65
  %53 = sext i32 %52 to i64
  %54 = getelementptr inbounds [26 x i32], [26 x i32]* %7, i64 0, i64 %53
  %55 = load i32, i32* %54, align 4
  %56 = add nsw i32 %55, 1
  store i32 %56, i32* %54, align 4
  br label %57

57:                                               ; preds = %43
  %58 = load i32, i32* %2, align 4
  %59 = add nsw i32 %58, 1
  store i32 %59, i32* %2, align 4
  br label %34

60:                                               ; preds = %34
  br label %61

61:                                               ; preds = %60
  %62 = load i32, i32* %1, align 4
  %63 = add nsw i32 %62, 1
  store i32 %63, i32* %1, align 4
  br label %21

64:                                               ; preds = %21
  store i32 0, i32* %5, align 4
  store i32 1, i32* %3, align 4
  br label %65

65:                                               ; preds = %81, %64
  %66 = load i32, i32* %3, align 4
  %67 = icmp slt i32 %66, 26
  br i1 %67, label %68, label %84

68:                                               ; preds = %65
  %69 = load i32, i32* %3, align 4
  %70 = sext i32 %69 to i64
  %71 = getelementptr inbounds [26 x i32], [26 x i32]* %7, i64 0, i64 %70
  %72 = load i32, i32* %71, align 4
  %73 = load i32, i32* %5, align 4
  %74 = sext i32 %73 to i64
  %75 = getelementptr inbounds [26 x i32], [26 x i32]* %7, i64 0, i64 %74
  %76 = load i32, i32* %75, align 4
  %77 = icmp sgt i32 %72, %76
  br i1 %77, label %78, label %80

78:                                               ; preds = %68
  %79 = load i32, i32* %3, align 4
  store i32 %79, i32* %5, align 4
  br label %80

80:                                               ; preds = %78, %68
  br label %81

81:                                               ; preds = %80
  %82 = load i32, i32* %3, align 4
  %83 = add nsw i32 %82, 1
  store i32 %83, i32* %3, align 4
  br label %65

84:                                               ; preds = %65
  %85 = load i32, i32* %5, align 4
  %86 = add nsw i32 %85, 65
  %87 = load i32, i32* %5, align 4
  %88 = sext i32 %87 to i64
  %89 = getelementptr inbounds [26 x i32], [26 x i32]* %7, i64 0, i64 %88
  %90 = load i32, i32* %89, align 4
  %91 = call i32 (i8*, ...) @printf(i8* getelementptr inbounds ([7 x i8], [7 x i8]* @.str.2, i64 0, i64 0), i32 %86, i32 %90)
  store i32 0, i32* %1, align 4
  br label %92

92:                                               ; preds = %129, %84
  %93 = load i32, i32* %1, align 4
  %94 = load i32, i32* %4, align 4
  %95 = icmp slt i32 %93, %94
  br i1 %95, label %96, label %132

96:                                               ; preds = %92
  store i32 0, i32* %2, align 4
  br label %97

97:                                               ; preds = %125, %96
  %98 = load i32, i32* %2, align 4
  %99 = sext i32 %98 to i64
  %100 = load i32, i32* %1, align 4
  %101 = sext i32 %100 to i64
  %102 = getelementptr inbounds [1000 x [26 x i8]], [1000 x [26 x i8]]* %8, i64 0, i64 %101
  %103 = getelementptr inbounds [26 x i8], [26 x i8]* %102, i64 0, i64 0
  %104 = call i64 @strlen(i8* %103) #3
  %105 = icmp ult i64 %99, %104
  br i1 %105, label %106, label %128

106:                                              ; preds = %97
  %107 = load i32, i32* %1, align 4
  %108 = sext i32 %107 to i64
  %109 = getelementptr inbounds [1000 x [26 x i8]], [1000 x [26 x i8]]* %8, i64 0, i64 %108
  %110 = load i32, i32* %2, align 4
  %111 = sext i32 %110 to i64
  %112 = getelementptr inbounds [26 x i8], [26 x i8]* %109, i64 0, i64 %111
  %113 = load i8, i8* %112, align 1
  %114 = sext i8 %113 to i32
  %115 = load i32, i32* %5, align 4
  %116 = add nsw i32 %115, 65
  %117 = icmp eq i32 %114, %116
  br i1 %117, label %118, label %124

118:                                              ; preds = %106
  %119 = load i32, i32* %1, align 4
  %120 = sext i32 %119 to i64
  %121 = getelementptr inbounds [1000 x i32], [1000 x i32]* %6, i64 0, i64 %120
  %122 = load i32, i32* %121, align 4
  %123 = call i32 (i8*, ...) @printf(i8* getelementptr inbounds ([4 x i8], [4 x i8]* @.str.3, i64 0, i64 0), i32 %122)
  br label %128

124:                                              ; preds = %106
  br label %125

125:                                              ; preds = %124
  %126 = load i32, i32* %2, align 4
  %127 = add nsw i32 %126, 1
  store i32 %127, i32* %2, align 4
  br label %97

128:                                              ; preds = %118, %97
  br label %129

129:                                              ; preds = %128
  %130 = load i32, i32* %1, align 4
  %131 = add nsw i32 %130, 1
  store i32 %131, i32* %1, align 4
  br label %92

132:                                              ; preds = %92
  ret void
}

declare dso_local i32 @__isoc99_scanf(i8*, ...) #1

; Function Attrs: nounwind readonly
declare dso_local i64 @strlen(i8*) #2

declare dso_local i32 @printf(i8*, ...) #1


!llvm.module.flags = !{!0}
!llvm.ident = !{!1}

!0 = !{i32 1, !"wchar_size", i32 4}
!1 = !{!"clang version 10.0.0-4ubuntu1 "}
